; Function Attrs: mustprogress nofree norecurse nosync nounwind willreturn memory(argmem: read) uwtable
define hidden range(i32 0, 3) i32 @av1_get_pred_context_single_ref_p3(ptr nocapture noundef readonly %0) local_unnamed_addr #2 {
  %2 = getelementptr inbounds i8, ptr %0, i64 10635
  %3 = load i8, ptr %2, align 1
  %4 = zext i8 %3 to i32
  %5 = getelementptr inbounds i8, ptr %0, i64 10636
  %6 = load i8, ptr %5, align 1
  %7 = zext i8 %6 to i32
  %8 = add nuw nsw i32 %7, %4
  %9 = getelementptr inbounds i8, ptr %0, i64 10637
  %10 = load i8, ptr %9, align 1
  %11 = zext i8 %10 to i32
  %12 = getelementptr inbounds i8, ptr %0, i64 10638
  %13 = load i8, ptr %12, align 1
  %14 = zext i8 %13 to i32
  %15 = add nuw nsw i32 %14, %11
  %16 = icmp eq i32 %8, %15
  %17 = icmp ult i32 %8, %15
  %18 = select i1 %17, i32 0, i32 2
  %19 = select i1 %16, i32 1, i32 %18
  ret i32 %19
}